target datalayout = "e-m:e-p270:32:32-p271:32:32-p272:64:64-i64:64-i128:128-f80:128-n8:16:32:64-S128"
target triple = "x86_64-pc-linux-gnu"

; Function Attrs: mustprogress nounwind uwtable
define void @_ZN5boost7archive21xml_archive_exceptionD2Ev(ptr noundef nonnull align 8 dereferenceable(8) %0, ptr noundef %1) unnamed_addr #3 align 2 {
  %3 = alloca ptr, align 8
  %4 = alloca ptr, align 8
  store ptr %0, ptr %3, align 8, !tbaa !3
  store ptr %1, ptr %4, align 8, !tbaa !3
  ret void
}

; Function Attrs: mustprogress nounwind uwtable
define void @_ZN5boost7archive21xml_archive_exceptionD1Ev(ptr noundef nonnull align 8 dereferenceable(8) %0) unnamed_addr #3 align 2 {
  %2 = alloca ptr, align 8
  store ptr %0, ptr %2, align 8, !tbaa !3
  %3 = load ptr, ptr %2, align 8
  call void @_ZN5boost7archive21xml_archive_exceptionD2Ev(ptr noundef nonnull align 8 dereferenceable(8) %3, ptr noundef @_ZTTN5boost7archive21xml_archive_exceptionE) #7
  %4 = getelementptr inbounds i8, ptr %3, i64 8
  call void @_ZN5boost7archive17archive_exceptionD2Ev(ptr noundef nonnull align 8 dereferenceable(140) %4, ptr noundef getelementptr inbounds ([5 x ptr], ptr @_ZTTN5boost7archive21xml_archive_exceptionE, i64 0, i64 3)) #7
  call void @_ZNSt9exceptionD2Ev(ptr noundef nonnull align 8 dereferenceable(8) %3) #7
  ret void
}

; Function Attrs: mustprogress nounwind uwtable
define void @_ZN5boost7archive21xml_archive_exceptionD0Ev(ptr noundef nonnull align 8 dereferenceable(8) %0) unnamed_addr #3 align 2 {
  %2 = alloca ptr, align 8
  store ptr %0, ptr %2, align 8, !tbaa !3
  %3 = load ptr, ptr %2, align 8
  call void @_ZN5boost7archive21xml_archive_exceptionD1Ev(ptr noundef nonnull align 8 dereferenceable(8) %3) #7
  call void @_ZdlPvm(ptr noundef %3, i64 noundef 152) #8
  ret void
}

; Function Attrs: nounwind uwtable
define void @_ZTv0_n24_N5boost7archive21xml_archive_exceptionD0Ev(ptr noundef %0) unnamed_addr #5 align 2 {
  %2 = alloca ptr, align 8
  store ptr %0, ptr %2, align 8, !tbaa !3
  %3 = load ptr, ptr %2, align 8
  %4 = load ptr, ptr %3, align 8, !tbaa !9
  %5 = getelementptr inbounds i8, ptr %4, i64 -24
  %6 = load i64, ptr %5, align 8
  %7 = getelementptr inbounds i8, ptr %3, i64 %6
  tail call void @_ZN5boost7archive21xml_archive_exceptionD0Ev(ptr noundef nonnull align 8 dereferenceable(8) %7) #7
  ret void
}