; Function Attrs: nounwind uwtable
define void @_ZTv0_n24_N5boost7archive21xml_archive_exceptionD0Ev(ptr noundef %0) unnamed_addr #6 align 2 {
  %2 = load ptr, ptr %0, align 8, !tbaa !3
  %3 = getelementptr inbounds i8, ptr %2, i64 -24
  %4 = load i64, ptr %3, align 8
  %5 = getelementptr inbounds i8, ptr %0, i64 %4
  %6 = getelementptr inbounds i8, ptr %5, i64 8
  tail call void @_ZN5boost7archive17archive_exceptionD2Ev(ptr noundef nonnull align 8 dereferenceable(140) %6, ptr noundef nonnull getelementptr inbounds (i8, ptr @_ZTTN5boost7archive21xml_archive_exceptionE, i64 24)) #8
  tail call void @_ZNSt9exceptionD2Ev(ptr noundef nonnull align 8 dereferenceable(8) %5) #8
  tail call void @_ZdlPvm(ptr noundef nonnull align 8 dereferenceable(8) %5, i64 noundef 152) #9
  ret void
}